target datalayout = "e-m:e-p270:32:32-p271:32:32-p272:64:64-i64:64-i128:128-f80:128-n8:16:32:64-S128"
target triple = "x86_64-pc-linux-gnu"

%struct.Smt_Prs_t_ = type { ptr, ptr, ptr, ptr, ptr, %struct.Vec_Int_t_, %struct.Vec_Wec_t_, i32, i32, %struct.Vec_Int_t_, [1000 x i8] }
%struct.Vec_Wec_t_ = type { i32, i32, ptr }
%struct.Vec_Int_t_ = type { i32, i32, ptr }

@Smt_PrsGenName.Buffer = internal global [16 x i8] zeroinitializer, align 16
@.str.7 = private unnamed_addr constant [7 x i8] c"_%0*X_\00", align 1

; Function Attrs: nounwind uwtable
define ptr @Smt_PrsGenName(ptr noundef %0) #0 {
  %2 = alloca ptr, align 8
  store ptr %0, ptr %2, align 8, !tbaa !8
  %3 = load ptr, ptr %2, align 8, !tbaa !8
  %4 = getelementptr inbounds nuw %struct.Smt_Prs_t_, ptr %3, i32 0, i32 8
  %5 = load i32, ptr %4, align 4, !tbaa !60
  %6 = load ptr, ptr %2, align 8, !tbaa !8
  %7 = getelementptr inbounds nuw %struct.Smt_Prs_t_, ptr %6, i32 0, i32 7
  %8 = load i32, ptr %7, align 8, !tbaa !61
  %9 = add nsw i32 %8, 1
  store i32 %9, ptr %7, align 8, !tbaa !61
  %10 = call i32 (ptr, ptr, ...) @sprintf(ptr noundef @Smt_PrsGenName.Buffer, ptr noundef @.str.7, i32 noundef %5, i32 noundef %9) #11
  ret ptr @Smt_PrsGenName.Buffer
}