; Function Attrs: nofree nounwind uwtable
define noundef nonnull ptr @Smt_PrsGenName(ptr noundef captures(none) %0) local_unnamed_addr #8 {
  %2 = getelementptr inbounds nuw i8, ptr %0, i64 76
  %3 = load i32, ptr %2, align 4, !tbaa !58
  %4 = getelementptr inbounds nuw i8, ptr %0, i64 72
  %5 = load i32, ptr %4, align 8, !tbaa !59
  %6 = add nsw i32 %5, 1
  store i32 %6, ptr %4, align 8, !tbaa !59
  %7 = tail call i32 (ptr, ptr, ...) @sprintf(ptr noundef nonnull dereferenceable(1) @Smt_PrsGenName.Buffer, ptr noundef nonnull dereferenceable(1) @.str.7, i32 noundef %3, i32 noundef %6) #20
  ret ptr @Smt_PrsGenName.Buffer
}